target datalayout = "e-m:e-p270:32:32-p271:32:32-p272:64:64-i64:64-i128:128-f80:128-n8:16:32:64-S128"
target triple = "x86_64-pc-linux-gnu"

; Function Attrs: alwaysinline nounwind uwtable
define internal void @sbc_analyze_simd(ptr noundef %0, ptr noundef %1, ptr noundef %2, i32 noundef %3) #3 {
  %5 = alloca ptr, align 8
  %6 = alloca ptr, align 8
  %7 = alloca ptr, align 8
  %8 = alloca i32, align 4
  %9 = alloca [8 x i32], align 16
  %10 = alloca [8 x i16], align 16
  %11 = alloca i32, align 4
  %12 = alloca i32, align 4
  %13 = alloca i32, align 4
  store ptr %0, ptr %5, align 8, !tbaa !20
  store ptr %1, ptr %6, align 8, !tbaa !22
  store ptr %2, ptr %7, align 8, !tbaa !20
  store i32 %3, ptr %8, align 4, !tbaa !24
  call void @llvm.lifetime.start.p0(i64 32, ptr %9) #8
  call void @llvm.lifetime.start.p0(i64 16, ptr %10) #8
  call void @llvm.lifetime.start.p0(i64 4, ptr %11) #8
  call void @llvm.lifetime.start.p0(i64 4, ptr %12) #8
  call void @llvm.lifetime.start.p0(i64 4, ptr %13) #8
  store i32 0, ptr %13, align 4, !tbaa !24
  store i32 0, ptr %11, align 4, !tbaa !24
  br label %14

14:                                               ; preds = %22, %4
  %15 = load i32, ptr %11, align 4, !tbaa !24
  %16 = load i32, ptr %8, align 4, !tbaa !24
  %17 = icmp ult i32 %15, %16
  br i1 %17, label %18, label %25

18:                                               ; preds = %14
  %19 = load i32, ptr %11, align 4, !tbaa !24
  %20 = sext i32 %19 to i64
  %21 = getelementptr inbounds [8 x i32], ptr %9, i64 0, i64 %20
  store i32 32768, ptr %21, align 4, !tbaa !24
  br label %22

22:                                               ; preds = %18
  %23 = load i32, ptr %11, align 4, !tbaa !24
  %24 = add nsw i32 %23, 1
  store i32 %24, ptr %11, align 4, !tbaa !24
  br label %14, !llvm.loop !47

25:                                               ; preds = %14
  store i32 0, ptr %13, align 4, !tbaa !24
  br label %26

26:                                               ; preds = %65, %25
  %27 = load i32, ptr %13, align 4, !tbaa !24
  %28 = load i32, ptr %8, align 4, !tbaa !24
  %29 = mul i32 10, %28
  %30 = icmp ult i32 %27, %29
  br i1 %30, label %31, label %70

31:                                               ; preds = %26
  store i32 0, ptr %11, align 4, !tbaa !24
  br label %32

32:                                               ; preds = %61, %31
  %33 = load i32, ptr %11, align 4, !tbaa !24
  %34 = load i32, ptr %8, align 4, !tbaa !24
  %35 = mul i32 2, %34
  %36 = icmp ult i32 %33, %35
  br i1 %36, label %37, label %64

37:                                               ; preds = %32
  %38 = load ptr, ptr %5, align 8, !tbaa !20
  %39 = load i32, ptr %13, align 4, !tbaa !24
  %40 = load i32, ptr %11, align 4, !tbaa !24
  %41 = add nsw i32 %39, %40
  %42 = sext i32 %41 to i64
  %43 = getelementptr inbounds i16, ptr %38, i64 %42
  %44 = load i16, ptr %43, align 2, !tbaa !30
  %45 = sext i16 %44 to i32
  %46 = load ptr, ptr %7, align 8, !tbaa !20
  %47 = load i32, ptr %13, align 4, !tbaa !24
  %48 = load i32, ptr %11, align 4, !tbaa !24
  %49 = add nsw i32 %47, %48
  %50 = sext i32 %49 to i64
  %51 = getelementptr inbounds i16, ptr %46, i64 %50
  %52 = load i16, ptr %51, align 2, !tbaa !30
  %53 = sext i16 %52 to i32
  %54 = mul nsw i32 %45, %53
  %55 = load i32, ptr %11, align 4, !tbaa !24
  %56 = ashr i32 %55, 1
  %57 = sext i32 %56 to i64
  %58 = getelementptr inbounds [8 x i32], ptr %9, i64 0, i64 %57
  %59 = load i32, ptr %58, align 4, !tbaa !24
  %60 = add nsw i32 %59, %54
  store i32 %60, ptr %58, align 4, !tbaa !24
  br label %61

61:                                               ; preds = %37
  %62 = load i32, ptr %11, align 4, !tbaa !24
  %63 = add nsw i32 %62, 1
  store i32 %63, ptr %11, align 4, !tbaa !24
  br label %32, !llvm.loop !48

64:                                               ; preds = %32
  br label %65

65:                                               ; preds = %64
  %66 = load i32, ptr %8, align 4, !tbaa !24
  %67 = mul i32 2, %66
  %68 = load i32, ptr %13, align 4, !tbaa !24
  %69 = add i32 %68, %67
  store i32 %69, ptr %13, align 4, !tbaa !24
  br label %26, !llvm.loop !49

70:                                               ; preds = %26
  store i32 0, ptr %11, align 4, !tbaa !24
  br label %71

71:                                               ; preds = %85, %70
  %72 = load i32, ptr %11, align 4, !tbaa !24
  %73 = load i32, ptr %8, align 4, !tbaa !24
  %74 = icmp ult i32 %72, %73
  br i1 %74, label %75, label %88

75:                                               ; preds = %71
  %76 = load i32, ptr %11, align 4, !tbaa !24
  %77 = sext i32 %76 to i64
  %78 = getelementptr inbounds [8 x i32], ptr %9, i64 0, i64 %77
  %79 = load i32, ptr %78, align 4, !tbaa !24
  %80 = ashr i32 %79, 16
  %81 = trunc i32 %80 to i16
  %82 = load i32, ptr %11, align 4, !tbaa !24
  %83 = sext i32 %82 to i64
  %84 = getelementptr inbounds [8 x i16], ptr %10, i64 0, i64 %83
  store i16 %81, ptr %84, align 2, !tbaa !30
  br label %85

85:                                               ; preds = %75
  %86 = load i32, ptr %11, align 4, !tbaa !24
  %87 = add nsw i32 %86, 1
  store i32 %87, ptr %11, align 4, !tbaa !24
  br label %71, !llvm.loop !50

88:                                               ; preds = %71
  %89 = getelementptr inbounds [8 x i32], ptr %9, i64 0, i64 0
  call void @llvm.memset.p0.i64(ptr align 16 %89, i8 0, i64 32, i1 false)
  store i32 0, ptr %11, align 4, !tbaa !24
  br label %90

90:                                               ; preds = %136, %88
  %91 = load i32, ptr %11, align 4, !tbaa !24
  %92 = load i32, ptr %8, align 4, !tbaa !24
  %93 = udiv i32 %92, 2
  %94 = icmp ult i32 %91, %93
  br i1 %94, label %95, label %139

95:                                               ; preds = %90
  store i32 0, ptr %12, align 4, !tbaa !24
  br label %96

96:                                               ; preds = %132, %95
  %97 = load i32, ptr %12, align 4, !tbaa !24
  %98 = load i32, ptr %8, align 4, !tbaa !24
  %99 = mul i32 2, %98
  %100 = icmp ult i32 %97, %99
  br i1 %100, label %101, label %135

101:                                              ; preds = %96
  %102 = load i32, ptr %11, align 4, !tbaa !24
  %103 = mul nsw i32 %102, 2
  %104 = load i32, ptr %12, align 4, !tbaa !24
  %105 = and i32 %104, 1
  %106 = add nsw i32 %103, %105
  %107 = sext i32 %106 to i64
  %108 = getelementptr inbounds [8 x i16], ptr %10, i64 0, i64 %107
  %109 = load i16, ptr %108, align 2, !tbaa !30
  %110 = sext i16 %109 to i32
  %111 = load ptr, ptr %7, align 8, !tbaa !20
  %112 = load i32, ptr %8, align 4, !tbaa !24
  %113 = mul i32 10, %112
  %114 = load i32, ptr %11, align 4, !tbaa !24
  %115 = mul nsw i32 %114, 2
  %116 = load i32, ptr %8, align 4, !tbaa !24
  %117 = mul i32 %115, %116
  %118 = add i32 %113, %117
  %119 = load i32, ptr %12, align 4, !tbaa !24
  %120 = add i32 %118, %119
  %121 = zext i32 %120 to i64
  %122 = getelementptr inbounds nuw i16, ptr %111, i64 %121
  %123 = load i16, ptr %122, align 2, !tbaa !30
  %124 = sext i16 %123 to i32
  %125 = mul nsw i32 %110, %124
  %126 = load i32, ptr %12, align 4, !tbaa !24
  %127 = ashr i32 %126, 1
  %128 = sext i32 %127 to i64
  %129 = getelementptr inbounds [8 x i32], ptr %9, i64 0, i64 %128
  %130 = load i32, ptr %129, align 4, !tbaa !24
  %131 = add nsw i32 %130, %125
  store i32 %131, ptr %129, align 4, !tbaa !24
  br label %132

132:                                              ; preds = %101
  %133 = load i32, ptr %12, align 4, !tbaa !24
  %134 = add nsw i32 %133, 1
  store i32 %134, ptr %12, align 4, !tbaa !24
  br label %96, !llvm.loop !51

135:                                              ; preds = %96
  br label %136

136:                                              ; preds = %135
  %137 = load i32, ptr %11, align 4, !tbaa !24
  %138 = add nsw i32 %137, 1
  store i32 %138, ptr %11, align 4, !tbaa !24
  br label %90, !llvm.loop !52

139:                                              ; preds = %90
  store i32 0, ptr %11, align 4, !tbaa !24
  br label %140

140:                                              ; preds = %154, %139
  %141 = load i32, ptr %11, align 4, !tbaa !24
  %142 = load i32, ptr %8, align 4, !tbaa !24
  %143 = icmp ult i32 %141, %142
  br i1 %143, label %144, label %157

144:                                              ; preds = %140
  %145 = load i32, ptr %11, align 4, !tbaa !24
  %146 = sext i32 %145 to i64
  %147 = getelementptr inbounds [8 x i32], ptr %9, i64 0, i64 %146
  %148 = load i32, ptr %147, align 4, !tbaa !24
  %149 = ashr i32 %148, 0
  %150 = load ptr, ptr %6, align 8, !tbaa !22
  %151 = load i32, ptr %11, align 4, !tbaa !24
  %152 = sext i32 %151 to i64
  %153 = getelementptr inbounds i32, ptr %150, i64 %152
  store i32 %149, ptr %153, align 4, !tbaa !24
  br label %154

154:                                              ; preds = %144
  %155 = load i32, ptr %11, align 4, !tbaa !24
  %156 = add nsw i32 %155, 1
  store i32 %156, ptr %11, align 4, !tbaa !24
  br label %140, !llvm.loop !53

157:                                              ; preds = %140
  call void @llvm.lifetime.end.p0(i64 4, ptr %13) #8
  call void @llvm.lifetime.end.p0(i64 4, ptr %12) #8
  call void @llvm.lifetime.end.p0(i64 4, ptr %11) #8
  call void @llvm.lifetime.end.p0(i64 16, ptr %10) #8
  call void @llvm.lifetime.end.p0(i64 32, ptr %9) #8
  ret void
}

; Function Attrs: nounwind uwtable
define internal void @sbc_analyze_4_simd(ptr noundef %0, ptr noundef %1, ptr noundef %2) #1 {
  %4 = alloca ptr, align 8
  %5 = alloca ptr, align 8
  %6 = alloca ptr, align 8
  store ptr %0, ptr %4, align 8, !tbaa !20
  store ptr %1, ptr %5, align 8, !tbaa !22
  store ptr %2, ptr %6, align 8, !tbaa !20
  %7 = load ptr, ptr %4, align 8, !tbaa !20
  %8 = load ptr, ptr %5, align 8, !tbaa !22
  %9 = load ptr, ptr %6, align 8, !tbaa !20
  call void @sbc_analyze_simd(ptr noundef %7, ptr noundef %8, ptr noundef %9, i32 noundef 4)
  ret void
}